; ModuleID = '34/1008.c'
source_filename = "34/1008.c"
target datalayout = "e-m:e-p270:32:32-p271:32:32-p272:64:64-i64:64-f80:128-n8:16:32:64-S128"
target triple = "x86_64-pc-linux-gnu"

@.str = private unnamed_addr constant [3 x i8] c"%d\00", align 1
@.str.1 = private unnamed_addr constant [11 x i8] c"%d*3+1=%d\0A\00", align 1
@.str.2 = private unnamed_addr constant [9 x i8] c"%d/2=%d\0A\00", align 1
@.str.3 = private unnamed_addr constant [4 x i8] c"End\00", align 1

; Function Attrs: noinline nounwind uwtable
define dso_local void @main() #0 {
  %1 = alloca i32, align 4
  %2 = alloca i32, align 4
  %3 = alloca i32, align 4
  %4 = alloca i32, align 4
  %5 = call i32 (i8*, ...) @__isoc99_scanf(i8* getelementptr inbounds ([3 x i8], [3 x i8]* @.str, i64 0, i64 0), i32* %1)
  %6 = load i32, i32* %1, align 4
  store i32 %6, i32* %3, align 4
  store i32 1, i32* %2, align 4
  br label %7

7:                                                ; preds = %47, %0
  %8 = load i32, i32* %2, align 4
  %9 = icmp sle i32 %8, 1000
  br i1 %9, label %10, label %50

10:                                               ; preds = %7
  %11 = load i32, i32* %3, align 4
  %12 = icmp ne i32 %11, 1
  br i1 %12, label %13, label %25

13:                                               ; preds = %10
  %14 = load i32, i32* %3, align 4
  %15 = srem i32 %14, 2
  %16 = icmp eq i32 %15, 1
  br i1 %16, label %17, label %25

17:                                               ; preds = %13
  %18 = load i32, i32* %3, align 4
  %19 = mul nsw i32 %18, 3
  %20 = add nsw i32 %19, 1
  store i32 %20, i32* %4, align 4
  %21 = load i32, i32* %3, align 4
  %22 = load i32, i32* %4, align 4
  %23 = call i32 (i8*, ...) @printf(i8* getelementptr inbounds ([11 x i8], [11 x i8]* @.str.1, i64 0, i64 0), i32 %21, i32 %22)
  %24 = load i32, i32* %4, align 4
  store i32 %24, i32* %3, align 4
  br label %46

25:                                               ; preds = %13, %10
  %26 = load i32, i32* %3, align 4
  %27 = icmp ne i32 %26, 1
  br i1 %27, label %28, label %39

28:                                               ; preds = %25
  %29 = load i32, i32* %3, align 4
  %30 = srem i32 %29, 2
  %31 = icmp eq i32 %30, 0
  br i1 %31, label %32, label %39

32:                                               ; preds = %28
  %33 = load i32, i32* %3, align 4
  %34 = sdiv i32 %33, 2
  store i32 %34, i32* %4, align 4
  %35 = load i32, i32* %3, align 4
  %36 = load i32, i32* %4, align 4
  %37 = call i32 (i8*, ...) @printf(i8* getelementptr inbounds ([9 x i8], [9 x i8]* @.str.2, i64 0, i64 0), i32 %35, i32 %36)
  %38 = load i32, i32* %4, align 4
  store i32 %38, i32* %3, align 4
  br label %45

39:                                               ; preds = %28, %25
  %40 = load i32, i32* %3, align 4
  %41 = icmp eq i32 %40, 1
  br i1 %41, label %42, label %44

42:                                               ; preds = %39
  %43 = call i32 (i8*, ...) @printf(i8* getelementptr inbounds ([4 x i8], [4 x i8]* @.str.3, i64 0, i64 0))
  br label %50

44:                                               ; preds = %39
  br label %45

45:                                               ; preds = %44, %32
  br label %46

46:                                               ; preds = %45, %17
  br label %47

47:                                               ; preds = %46
  %48 = load i32, i32* %2, align 4
  %49 = add nsw i32 %48, 1
  store i32 %49, i32* %2, align 4
  br label %7

50:                                               ; preds = %42, %7
  ret void
}

declare dso_local i32 @__isoc99_scanf(i8*, ...) #1

declare dso_local i32 @printf(i8*, ...) #1


!llvm.module.flags = !{!0}
!llvm.ident = !{!1}

!0 = !{i32 1, !"wchar_size", i32 4}
!1 = !{!"clang version 10.0.0-4ubuntu1 "}
