; ModuleID = 'source-C-CXX/33/1008.c'
source_filename = "source-C-CXX/33/1008.c"
target datalayout = "e-m:e-p270:32:32-p271:32:32-p272:64:64-i64:64-f80:128-n8:16:32:64-S128"
target triple = "x86_64-pc-linux-gnu"

@.str = private unnamed_addr constant [3 x i8] c"%d\00", align 1
@.str.1 = private unnamed_addr constant [11 x i8] c"%d*3+1=%d\0A\00", align 1
@.str.2 = private unnamed_addr constant [9 x i8] c"%d/2=%d\0A\00", align 1
@.str.3 = private unnamed_addr constant [4 x i8] c"End\00", align 1

; Function Attrs: nofree nounwind sspstrong uwtable
define dso_local void @main() local_unnamed_addr #0 {
  %1 = alloca i32, align 4
  %2 = bitcast i32* %1 to i8*
  call void @llvm.lifetime.start.p0i8(i64 4, i8* nonnull %2) #3
  %3 = call i32 (i8*, ...) @__isoc99_scanf(i8* getelementptr inbounds ([3 x i8], [3 x i8]* @.str, i64 0, i64 0), i32* nonnull %1)
  %4 = load i32, i32* %1, align 4, !tbaa !5
  br label %5

5:                                                ; preds = %0, %26
  %6 = phi i32 [ %4, %0 ], [ %27, %26 ]
  %7 = phi i32 [ 1, %0 ], [ %28, %26 ]
  %8 = icmp eq i32 %6, 1
  %9 = srem i32 %6, 2
  %10 = sdiv i32 %6, 2
  %11 = icmp ne i32 %9, 1
  %12 = or i1 %8, %11
  br i1 %12, label %17, label %13

13:                                               ; preds = %5
  %14 = mul nsw i32 %6, 3
  %15 = add nsw i32 %14, 1
  %16 = call i32 (i8*, ...) @printf(i8* nonnull dereferenceable(1) getelementptr inbounds ([11 x i8], [11 x i8]* @.str.1, i64 0, i64 0), i32 %6, i32 %15)
  br label %26

17:                                               ; preds = %5
  %18 = and i32 %6, 1
  %19 = icmp ne i32 %18, 0
  %20 = or i1 %8, %19
  br i1 %20, label %23, label %21

21:                                               ; preds = %17
  %22 = call i32 (i8*, ...) @printf(i8* nonnull dereferenceable(1) getelementptr inbounds ([9 x i8], [9 x i8]* @.str.2, i64 0, i64 0), i32 %6, i32 %10)
  br label %26

23:                                               ; preds = %17
  br i1 %8, label %24, label %26

24:                                               ; preds = %23
  %25 = call i32 (i8*, ...) @printf(i8* nonnull dereferenceable(1) getelementptr inbounds ([4 x i8], [4 x i8]* @.str.3, i64 0, i64 0))
  br label %30

26:                                               ; preds = %13, %23, %21
  %27 = phi i32 [ %15, %13 ], [ %10, %21 ], [ %6, %23 ]
  %28 = add nuw nsw i32 %7, 1
  %29 = icmp eq i32 %28, 1001
  br i1 %29, label %30, label %5, !llvm.loop !9

30:                                               ; preds = %26, %24
  call void @llvm.lifetime.end.p0i8(i64 4, i8* nonnull %2) #3
  ret void
}

; Function Attrs: argmemonly mustprogress nofree nosync nounwind willreturn
declare void @llvm.lifetime.start.p0i8(i64 immarg, i8* nocapture) #1

; Function Attrs: nofree nounwind
declare noundef i32 @__isoc99_scanf(i8* nocapture noundef readonly, ...) local_unnamed_addr #2

; Function Attrs: nofree nounwind
declare noundef i32 @printf(i8* nocapture noundef readonly, ...) local_unnamed_addr #2

; Function Attrs: argmemonly mustprogress nofree nosync nounwind willreturn
declare void @llvm.lifetime.end.p0i8(i64 immarg, i8* nocapture) #1


!llvm.module.flags = !{!0, !1, !2, !3}
!llvm.ident = !{!4}

!0 = !{i32 1, !"wchar_size", i32 4}
!1 = !{i32 7, !"PIC Level", i32 2}
!2 = !{i32 7, !"PIE Level", i32 2}
!3 = !{i32 7, !"uwtable", i32 1}
!4 = !{!"clang version 13.0.0"}
!5 = !{!6, !6, i64 0}
!6 = !{!"int", !7, i64 0}
!7 = !{!"omnipotent char", !8, i64 0}
!8 = !{!"Simple C/C++ TBAA"}
!9 = distinct !{!9, !10}
!10 = !{!"llvm.loop.mustprogress"}
